target datalayout = "e-m:e-p270:32:32-p271:32:32-p272:64:64-i64:64-i128:128-f80:128-n8:16:32:64-S128"
target triple = "x86_64-pc-linux-gnu"

@.str.3 = private unnamed_addr constant [2 x i8] c"\0A\00", align 1
@.str.4 = private unnamed_addr constant [22 x i8] c"Verification failed!\0A\00", align 1

; Function Attrs: nounwind uwtable
define void @If_Dec6Verify(i64 noundef %0, i64 noundef %1) #0 {
  %3 = alloca i64, align 8
  %4 = alloca i64, align 8
  %5 = alloca i64, align 8
  store i64 %0, ptr %3, align 8, !tbaa !3
  store i64 %1, ptr %4, align 8, !tbaa !3
  call void @llvm.lifetime.start.p0(i64 8, ptr %5) #7
  %6 = load i64, ptr %4, align 8, !tbaa !3
  %7 = call i64 @If_Dec6Truth(i64 noundef %6)
  store i64 %7, ptr %5, align 8, !tbaa !3
  %8 = load i64, ptr %5, align 8, !tbaa !3
  %9 = load i64, ptr %3, align 8, !tbaa !3
  %10 = icmp ne i64 %8, %9
  br i1 %10, label %11, label %16

11:                                               ; preds = %2
  %12 = load i64, ptr %4, align 8, !tbaa !3
  call void @If_DecPrintConfig(i64 noundef %12)
  call void @Kit_DsdPrintFromTruth(ptr noundef %3, i32 noundef 6)
  %13 = call i32 (ptr, ...) @printf(ptr noundef @.str.3)
  call void @Kit_DsdPrintFromTruth(ptr noundef %5, i32 noundef 6)
  %14 = call i32 (ptr, ...) @printf(ptr noundef @.str.3)
  %15 = call i32 (ptr, ...) @printf(ptr noundef @.str.4)
  br label %16

16:                                               ; preds = %11, %2
  call void @llvm.lifetime.end.p0(i64 8, ptr %5) #7
  ret void
}

; Function Attrs: nounwind uwtable
define i64 @If_CutPerformDerive07(ptr noundef %0, ptr noundef %1, i32 noundef %2, i32 noundef %3, ptr noundef %4) #0 {
  %6 = alloca i64, align 8
  %7 = alloca ptr, align 8
  %8 = alloca ptr, align 8
  %9 = alloca i32, align 4
  %10 = alloca i32, align 4
  %11 = alloca ptr, align 8
  %12 = alloca i64, align 8
  %13 = alloca i64, align 8
  %14 = alloca i64, align 8
  %15 = alloca i64, align 8
  %16 = alloca i64, align 8
  %17 = alloca [2 x i64], align 16
  store ptr %0, ptr %7, align 8, !tbaa !70
  store ptr %1, ptr %8, align 8, !tbaa !27
  store i32 %2, ptr %9, align 4, !tbaa !7
  store i32 %3, ptr %10, align 4, !tbaa !7
  store ptr %4, ptr %11, align 8, !tbaa !42
  %18 = load i32, ptr %10, align 4, !tbaa !7
  %19 = icmp slt i32 %18, 5
  br i1 %19, label %20, label %21

20:                                               ; preds = %5
  store i64 1, ptr %6, align 8
  br label %70

21:                                               ; preds = %5
  %22 = load i32, ptr %10, align 4, !tbaa !7
  %23 = icmp eq i32 %22, 5
  br i1 %23, label %24, label %40

24:                                               ; preds = %21
  call void @llvm.lifetime.start.p0(i64 8, ptr %12) #7
  call void @llvm.lifetime.start.p0(i64 8, ptr %13) #7
  %25 = load ptr, ptr %8, align 8, !tbaa !27
  %26 = getelementptr inbounds i32, ptr %25, i64 0
  %27 = load i32, ptr %26, align 4, !tbaa !7
  %28 = zext i32 %27 to i64
  %29 = shl i64 %28, 32
  %30 = load ptr, ptr %8, align 8, !tbaa !27
  %31 = getelementptr inbounds i32, ptr %30, i64 0
  %32 = load i32, ptr %31, align 4, !tbaa !7
  %33 = zext i32 %32 to i64
  %34 = or i64 %29, %33
  store i64 %34, ptr %13, align 8, !tbaa !3
  %35 = load i64, ptr %13, align 8, !tbaa !3
  %36 = call i64 @If_Dec5Perform(i64 noundef %35, i32 noundef 1)
  store i64 %36, ptr %12, align 8, !tbaa !3
  %37 = load i64, ptr %13, align 8, !tbaa !3
  %38 = load i64, ptr %12, align 8, !tbaa !3
  call void @If_Dec6Verify(i64 noundef %37, i64 noundef %38)
  %39 = load i64, ptr %12, align 8, !tbaa !3
  store i64 %39, ptr %6, align 8
  call void @llvm.lifetime.end.p0(i64 8, ptr %13) #7
  call void @llvm.lifetime.end.p0(i64 8, ptr %12) #7
  br label %70

40:                                               ; preds = %21
  %41 = load i32, ptr %10, align 4, !tbaa !7
  %42 = icmp eq i32 %41, 6
  br i1 %42, label %43, label %52

43:                                               ; preds = %40
  call void @llvm.lifetime.start.p0(i64 8, ptr %14) #7
  call void @llvm.lifetime.start.p0(i64 8, ptr %15) #7
  %44 = load ptr, ptr %8, align 8, !tbaa !27
  %45 = getelementptr inbounds i64, ptr %44, i64 0
  %46 = load i64, ptr %45, align 8, !tbaa !3
  store i64 %46, ptr %15, align 8, !tbaa !3
  %47 = load i64, ptr %15, align 8, !tbaa !3
  %48 = call i64 @If_Dec6Perform(i64 noundef %47, i32 noundef 1)
  store i64 %48, ptr %14, align 8, !tbaa !3
  %49 = load i64, ptr %15, align 8, !tbaa !3
  %50 = load i64, ptr %14, align 8, !tbaa !3
  call void @If_Dec6Verify(i64 noundef %49, i64 noundef %50)
  %51 = load i64, ptr %14, align 8, !tbaa !3
  store i64 %51, ptr %6, align 8
  call void @llvm.lifetime.end.p0(i64 8, ptr %15) #7
  call void @llvm.lifetime.end.p0(i64 8, ptr %14) #7
  br label %70

52:                                               ; preds = %40
  %53 = load i32, ptr %10, align 4, !tbaa !7
  %54 = icmp eq i32 %53, 7
  br i1 %54, label %55, label %69

55:                                               ; preds = %52
  call void @llvm.lifetime.start.p0(i64 8, ptr %16) #7
  call void @llvm.lifetime.start.p0(i64 16, ptr %17) #7
  %56 = load ptr, ptr %8, align 8, !tbaa !27
  %57 = getelementptr inbounds i64, ptr %56, i64 0
  %58 = load i64, ptr %57, align 8, !tbaa !3
  %59 = getelementptr inbounds [2 x i64], ptr %17, i64 0, i64 0
  store i64 %58, ptr %59, align 16, !tbaa !3
  %60 = load ptr, ptr %8, align 8, !tbaa !27
  %61 = getelementptr inbounds i64, ptr %60, i64 1
  %62 = load i64, ptr %61, align 8, !tbaa !3
  %63 = getelementptr inbounds [2 x i64], ptr %17, i64 0, i64 1
  store i64 %62, ptr %63, align 8, !tbaa !3
  %64 = getelementptr inbounds [2 x i64], ptr %17, i64 0, i64 0
  %65 = call i64 @If_Dec7Perform(ptr noundef %64, i32 noundef 1)
  store i64 %65, ptr %16, align 8, !tbaa !3
  %66 = getelementptr inbounds [2 x i64], ptr %17, i64 0, i64 0
  %67 = load i64, ptr %16, align 8, !tbaa !3
  call void @If_Dec7Verify(ptr noundef %66, i64 noundef %67)
  %68 = load i64, ptr %16, align 8, !tbaa !3
  store i64 %68, ptr %6, align 8
  call void @llvm.lifetime.end.p0(i64 16, ptr %17) #7
  call void @llvm.lifetime.end.p0(i64 8, ptr %16) #7
  br label %70

69:                                               ; preds = %52
  store i64 0, ptr %6, align 8
  br label %70

70:                                               ; preds = %69, %55, %43, %24, %20
  %71 = load i64, ptr %6, align 8
  ret i64 %71
}