; Function Attrs: nounwind uwtable
define noundef i64 @If_CutPerformDerive07(ptr noundef readnone captures(none) %0, ptr noundef readonly captures(none) %1, i32 noundef %2, i32 noundef %3, ptr noundef readnone captures(none) %4) local_unnamed_addr #0 {
  %6 = alloca i64, align 8
  %7 = alloca i64, align 8
  %8 = alloca i64, align 8
  %9 = alloca i64, align 8
  %10 = alloca [2 x i64], align 16
  %11 = icmp slt i32 %3, 5
  br i1 %11, label %32, label %12

12:                                               ; preds = %5
  switch i32 %3, label %32 [
    i32 5, label %13
    i32 6, label %21
    i32 7, label %26
  ]

13:                                               ; preds = %12
  %14 = load i32, ptr %1, align 4, !tbaa !3
  %15 = zext i32 %14 to i64
  %16 = shl nuw i64 %15, 32
  %17 = or disjoint i64 %16, %15
  %18 = tail call i64 @If_Dec5Perform(i64 noundef %17, i32 noundef 1)
  call void @llvm.lifetime.start.p0(i64 8, ptr nonnull %8)
  store i64 %17, ptr %8, align 8, !tbaa !10
  call void @llvm.lifetime.start.p0(i64 8, ptr nonnull %9) #14
  %19 = tail call i64 @If_Dec6Truth(i64 noundef %18)
  store i64 %19, ptr %9, align 8, !tbaa !10
  %.not.i = icmp eq i64 %19, %17
  br i1 %.not.i, label %If_Dec6Verify.exit, label %20

20:                                               ; preds = %13
  tail call void @If_DecPrintConfig(i64 noundef %18)
  call void @Kit_DsdPrintFromTruth(ptr noundef nonnull %8, i32 noundef 6) #14
  %putchar.i = call i32 @putchar(i32 10)
  call void @Kit_DsdPrintFromTruth(ptr noundef nonnull %9, i32 noundef 6) #14
  %putchar2.i = call i32 @putchar(i32 10)
  %puts.i = call i32 @puts(ptr nonnull dereferenceable(1) @str.1)
  br label %If_Dec6Verify.exit

If_Dec6Verify.exit:                               ; preds = %13, %20
  call void @llvm.lifetime.end.p0(i64 8, ptr nonnull %9) #14
  call void @llvm.lifetime.end.p0(i64 8, ptr nonnull %8)
  br label %32

21:                                               ; preds = %12
  %22 = load i64, ptr %1, align 8, !tbaa !10
  %23 = tail call i64 @If_Dec6Perform(i64 noundef %22, i32 noundef 1)
  call void @llvm.lifetime.start.p0(i64 8, ptr nonnull %6)
  store i64 %22, ptr %6, align 8, !tbaa !10
  call void @llvm.lifetime.start.p0(i64 8, ptr nonnull %7) #14
  %24 = tail call i64 @If_Dec6Truth(i64 noundef %23)
  store i64 %24, ptr %7, align 8, !tbaa !10
  %.not.i20 = icmp eq i64 %24, %22
  br i1 %.not.i20, label %If_Dec6Verify.exit24, label %25

25:                                               ; preds = %21
  tail call void @If_DecPrintConfig(i64 noundef %23)
  call void @Kit_DsdPrintFromTruth(ptr noundef nonnull %6, i32 noundef 6) #14
  %putchar.i21 = call i32 @putchar(i32 10)
  call void @Kit_DsdPrintFromTruth(ptr noundef nonnull %7, i32 noundef 6) #14
  %putchar2.i22 = call i32 @putchar(i32 10)
  %puts.i23 = call i32 @puts(ptr nonnull dereferenceable(1) @str.1)
  br label %If_Dec6Verify.exit24

If_Dec6Verify.exit24:                             ; preds = %21, %25
  call void @llvm.lifetime.end.p0(i64 8, ptr nonnull %7) #14
  call void @llvm.lifetime.end.p0(i64 8, ptr nonnull %6)
  br label %32

26:                                               ; preds = %12
  call void @llvm.lifetime.start.p0(i64 16, ptr nonnull %10) #14
  %27 = load i64, ptr %1, align 8, !tbaa !10
  store i64 %27, ptr %10, align 16, !tbaa !10
  %28 = getelementptr inbounds nuw i8, ptr %1, i64 8
  %29 = load i64, ptr %28, align 8, !tbaa !10
  %30 = getelementptr inbounds nuw i8, ptr %10, i64 8
  store i64 %29, ptr %30, align 8, !tbaa !10
  %31 = call i64 @If_Dec7Perform(ptr noundef nonnull %10, i32 noundef 1)
  call void @If_Dec7Verify(ptr noundef nonnull %10, i64 noundef %31)
  call void @llvm.lifetime.end.p0(i64 16, ptr nonnull %10) #14
  br label %32

32:                                               ; preds = %12, %5, %26, %If_Dec6Verify.exit24, %If_Dec6Verify.exit
  %.0 = phi i64 [ %18, %If_Dec6Verify.exit ], [ %23, %If_Dec6Verify.exit24 ], [ %31, %26 ], [ 1, %5 ], [ 0, %12 ]
  ret i64 %.0
}